target datalayout = "e-m:e-p270:32:32-p271:32:32-p272:64:64-i64:64-i128:128-f80:128-n8:16:32:64-S128"
target triple = "x86_64-pc-linux-gnu"

@.str.2 = private unnamed_addr constant [2 x i8] c"*\00", align 1
@.str.3 = private unnamed_addr constant [26 x i8] c"Empty pattern not allowed\00", align 1
@.str.4 = private unnamed_addr constant [79 x i8] c"Invalid character '%c' in pattern (Only [a-zA-Z0-9_.-] allowed, or a single *)\00", align 1

; Function Attrs: nounwind uwtable
define hidden ptr @convert_ext_list(ptr noundef %0, ptr noundef %1, ptr noundef %2, ptr noundef %3) #0 {
  %5 = alloca ptr, align 8
  %6 = alloca ptr, align 8
  %7 = alloca ptr, align 8
  %8 = alloca ptr, align 8
  %9 = alloca ptr, align 8
  %10 = alloca ptr, align 8
  %11 = alloca i32, align 4
  %12 = alloca i64, align 8
  %13 = alloca ptr, align 8
  %14 = alloca i32, align 4
  %15 = alloca ptr, align 8
  %16 = alloca [2 x i8], align 1
  store ptr %0, ptr %6, align 8
  store ptr %1, ptr %7, align 8
  store ptr %2, ptr %8, align 8
  store ptr %3, ptr %9, align 8
  call void @llvm.lifetime.start.p0(i64 8, ptr %10) #4
  call void @llvm.lifetime.start.p0(i64 4, ptr %11) #4
  call void @llvm.lifetime.start.p0(i64 8, ptr %12) #4
  store i32 0, ptr %11, align 4
  call void @llvm.lifetime.start.p0(i64 8, ptr %13) #4
  %17 = load ptr, ptr %6, align 8
  store ptr %17, ptr %13, align 8
  br label %18

18:                                               ; preds = %31, %4
  %19 = load ptr, ptr %13, align 8
  %20 = load i8, ptr %19, align 1
  %21 = icmp ne i8 %20, 0
  br i1 %21, label %23, label %22

22:                                               ; preds = %18
  call void @llvm.lifetime.end.p0(i64 8, ptr %13) #4
  br label %34

23:                                               ; preds = %18
  %24 = load ptr, ptr %13, align 8
  %25 = load i8, ptr %24, align 1
  %26 = sext i8 %25 to i32
  %27 = icmp eq i32 %26, 59
  %28 = zext i1 %27 to i32
  %29 = load i32, ptr %11, align 4
  %30 = add nsw i32 %29, %28
  store i32 %30, ptr %11, align 4
  br label %31

31:                                               ; preds = %23
  %32 = load ptr, ptr %13, align 8
  %33 = getelementptr inbounds nuw i8, ptr %32, i32 1
  store ptr %33, ptr %13, align 8
  br label %18, !llvm.loop !5

34:                                               ; preds = %22
  %35 = load ptr, ptr %6, align 8
  %36 = call i64 @SDL_strlen_REAL(ptr noundef %35)
  %37 = load i32, ptr %11, align 4
  %38 = sext i32 %37 to i64
  %39 = sub i64 %36, %38
  %40 = load i32, ptr %11, align 4
  %41 = sext i32 %40 to i64
  %42 = load ptr, ptr %8, align 8
  %43 = call i64 @SDL_strlen_REAL(ptr noundef %42)
  %44 = mul i64 %41, %43
  %45 = add i64 %39, %44
  %46 = load ptr, ptr %7, align 8
  %47 = call i64 @SDL_strlen_REAL(ptr noundef %46)
  %48 = add i64 %45, %47
  %49 = load ptr, ptr %9, align 8
  %50 = call i64 @SDL_strlen_REAL(ptr noundef %49)
  %51 = add i64 %48, %50
  %52 = add i64 %51, 1
  store i64 %52, ptr %12, align 8
  %53 = load i64, ptr %12, align 8
  %54 = call noalias ptr @SDL_malloc_REAL(i64 noundef %53)
  store ptr %54, ptr %10, align 8
  %55 = load ptr, ptr %10, align 8
  %56 = icmp ne ptr %55, null
  br i1 %56, label %58, label %57

57:                                               ; preds = %34
  store ptr null, ptr %5, align 8
  store i32 1, ptr %14, align 4
  br label %187

58:                                               ; preds = %34
  %59 = load ptr, ptr %10, align 8
  store i8 0, ptr %59, align 1
  %60 = load ptr, ptr %10, align 8
  %61 = load ptr, ptr %7, align 8
  %62 = load i64, ptr %12, align 8
  %63 = call i64 @SDL_strlcat_REAL(ptr noundef %60, ptr noundef %61, i64 noundef %62)
  %64 = load ptr, ptr %6, align 8
  %65 = call i32 @SDL_strcmp_REAL(ptr noundef %64, ptr noundef @.str.2)
  %66 = icmp eq i32 %65, 0
  br i1 %66, label %67, label %71

67:                                               ; preds = %58
  %68 = load ptr, ptr %10, align 8
  %69 = load i64, ptr %12, align 8
  %70 = call i64 @SDL_strlcat_REAL(ptr noundef %68, ptr noundef @.str.2, i64 noundef %69)
  br label %169

71:                                               ; preds = %58
  call void @llvm.lifetime.start.p0(i64 8, ptr %15) #4
  %72 = load ptr, ptr %6, align 8
  store ptr %72, ptr %15, align 8
  br label %73

73:                                               ; preds = %163, %71
  %74 = load ptr, ptr %15, align 8
  %75 = load i8, ptr %74, align 1
  %76 = icmp ne i8 %75, 0
  br i1 %76, label %78, label %77

77:                                               ; preds = %73
  store i32 5, ptr %14, align 4
  br label %166

78:                                               ; preds = %73
  %79 = load ptr, ptr %15, align 8
  %80 = load i8, ptr %79, align 1
  %81 = sext i8 %80 to i32
  %82 = icmp sge i32 %81, 97
  br i1 %82, label %83, label %88

83:                                               ; preds = %78
  %84 = load ptr, ptr %15, align 8
  %85 = load i8, ptr %84, align 1
  %86 = sext i8 %85 to i32
  %87 = icmp sle i32 %86, 122
  br i1 %87, label %123, label %88

88:                                               ; preds = %83, %78
  %89 = load ptr, ptr %15, align 8
  %90 = load i8, ptr %89, align 1
  %91 = sext i8 %90 to i32
  %92 = icmp sge i32 %91, 65
  br i1 %92, label %93, label %98

93:                                               ; preds = %88
  %94 = load ptr, ptr %15, align 8
  %95 = load i8, ptr %94, align 1
  %96 = sext i8 %95 to i32
  %97 = icmp sle i32 %96, 90
  br i1 %97, label %123, label %98

98:                                               ; preds = %93, %88
  %99 = load ptr, ptr %15, align 8
  %100 = load i8, ptr %99, align 1
  %101 = sext i8 %100 to i32
  %102 = icmp sge i32 %101, 48
  br i1 %102, label %103, label %108

103:                                              ; preds = %98
  %104 = load ptr, ptr %15, align 8
  %105 = load i8, ptr %104, align 1
  %106 = sext i8 %105 to i32
  %107 = icmp sle i32 %106, 57
  br i1 %107, label %123, label %108

108:                                              ; preds = %103, %98
  %109 = load ptr, ptr %15, align 8
  %110 = load i8, ptr %109, align 1
  %111 = sext i8 %110 to i32
  %112 = icmp eq i32 %111, 45
  br i1 %112, label %123, label %113

113:                                              ; preds = %108
  %114 = load ptr, ptr %15, align 8
  %115 = load i8, ptr %114, align 1
  %116 = sext i8 %115 to i32
  %117 = icmp eq i32 %116, 95
  br i1 %117, label %123, label %118

118:                                              ; preds = %113
  %119 = load ptr, ptr %15, align 8
  %120 = load i8, ptr %119, align 1
  %121 = sext i8 %120 to i32
  %122 = icmp eq i32 %121, 46
  br i1 %122, label %123, label %132

123:                                              ; preds = %118, %113, %108, %103, %93, %83
  call void @llvm.lifetime.start.p0(i64 2, ptr %16) #4
  %124 = load ptr, ptr %15, align 8
  %125 = load i8, ptr %124, align 1
  %126 = getelementptr inbounds [2 x i8], ptr %16, i64 0, i64 0
  store i8 %125, ptr %126, align 1
  %127 = getelementptr inbounds [2 x i8], ptr %16, i64 0, i64 1
  store i8 0, ptr %127, align 1
  %128 = load ptr, ptr %10, align 8
  %129 = getelementptr inbounds [2 x i8], ptr %16, i64 0, i64 0
  %130 = load i64, ptr %12, align 8
  %131 = call i64 @SDL_strlcat_REAL(ptr noundef %128, ptr noundef %129, i64 noundef %130)
  call void @llvm.lifetime.end.p0(i64 2, ptr %16) #4
  br label %162

132:                                              ; preds = %118
  %133 = load ptr, ptr %15, align 8
  %134 = load i8, ptr %133, align 1
  %135 = sext i8 %134 to i32
  %136 = icmp eq i32 %135, 59
  br i1 %136, label %137, label %155

137:                                              ; preds = %132
  %138 = load ptr, ptr %15, align 8
  %139 = load ptr, ptr %6, align 8
  %140 = icmp eq ptr %138, %139
  br i1 %140, label %147, label %141

141:                                              ; preds = %137
  %142 = load ptr, ptr %15, align 8
  %143 = getelementptr inbounds i8, ptr %142, i64 -1
  %144 = load i8, ptr %143, align 1
  %145 = sext i8 %144 to i32
  %146 = icmp eq i32 %145, 59
  br i1 %146, label %147, label %150

147:                                              ; preds = %141, %137
  %148 = call zeroext i1 (ptr, ...) @SDL_SetError_REAL(ptr noundef @.str.3)
  %149 = load ptr, ptr %10, align 8
  call void @SDL_free_REAL(ptr noundef %149)
  store ptr null, ptr %5, align 8
  store i32 1, ptr %14, align 4
  br label %166

150:                                              ; preds = %141
  %151 = load ptr, ptr %10, align 8
  %152 = load ptr, ptr %8, align 8
  %153 = load i64, ptr %12, align 8
  %154 = call i64 @SDL_strlcat_REAL(ptr noundef %151, ptr noundef %152, i64 noundef %153)
  br label %161

155:                                              ; preds = %132
  %156 = load ptr, ptr %15, align 8
  %157 = load i8, ptr %156, align 1
  %158 = sext i8 %157 to i32
  %159 = call zeroext i1 (ptr, ...) @SDL_SetError_REAL(ptr noundef @.str.4, i32 noundef %158)
  %160 = load ptr, ptr %10, align 8
  call void @SDL_free_REAL(ptr noundef %160)
  store ptr null, ptr %5, align 8
  store i32 1, ptr %14, align 4
  br label %166

161:                                              ; preds = %150
  br label %162

162:                                              ; preds = %161, %123
  br label %163

163:                                              ; preds = %162
  %164 = load ptr, ptr %15, align 8
  %165 = getelementptr inbounds nuw i8, ptr %164, i32 1
  store ptr %165, ptr %15, align 8
  br label %73, !llvm.loop !6

166:                                              ; preds = %155, %147, %77
  call void @llvm.lifetime.end.p0(i64 8, ptr %15) #4
  %167 = load i32, ptr %14, align 4
  switch i32 %167, label %187 [
    i32 5, label %168
  ]

168:                                              ; preds = %166
  br label %169

169:                                              ; preds = %168, %67
  %170 = load ptr, ptr %6, align 8
  %171 = load ptr, ptr %6, align 8
  %172 = call i64 @SDL_strlen_REAL(ptr noundef %171)
  %173 = sub i64 %172, 1
  %174 = getelementptr inbounds nuw i8, ptr %170, i64 %173
  %175 = load i8, ptr %174, align 1
  %176 = sext i8 %175 to i32
  %177 = icmp eq i32 %176, 59
  br i1 %177, label %178, label %181

178:                                              ; preds = %169
  %179 = call zeroext i1 (ptr, ...) @SDL_SetError_REAL(ptr noundef @.str.3)
  %180 = load ptr, ptr %10, align 8
  call void @SDL_free_REAL(ptr noundef %180)
  store ptr null, ptr %5, align 8
  store i32 1, ptr %14, align 4
  br label %187

181:                                              ; preds = %169
  %182 = load ptr, ptr %10, align 8
  %183 = load ptr, ptr %9, align 8
  %184 = load i64, ptr %12, align 8
  %185 = call i64 @SDL_strlcat_REAL(ptr noundef %182, ptr noundef %183, i64 noundef %184)
  %186 = load ptr, ptr %10, align 8
  store ptr %186, ptr %5, align 8
  store i32 1, ptr %14, align 4
  br label %187

187:                                              ; preds = %181, %178, %166, %57
  call void @llvm.lifetime.end.p0(i64 8, ptr %12) #4
  call void @llvm.lifetime.end.p0(i64 4, ptr %11) #4
  call void @llvm.lifetime.end.p0(i64 8, ptr %10) #4
  %188 = load ptr, ptr %5, align 8
  ret ptr %188
}