; Function Attrs: nounwind uwtable
define hidden ptr @convert_ext_list(ptr noundef %0, ptr noundef %1, ptr noundef %2, ptr noundef %3) local_unnamed_addr #0 {
  %5 = alloca [2 x i8], align 1
  %6 = load i8, ptr %0, align 1
  %.not72 = icmp eq i8 %6, 0
  br i1 %.not72, label %._crit_edge, label %.lr.ph

._crit_edge.loopexit:                             ; preds = %.lr.ph
  %7 = zext nneg i32 %21 to i64
  br label %._crit_edge

._crit_edge:                                      ; preds = %._crit_edge.loopexit, %4
  %.056.lcssa = phi i64 [ 0, %4 ], [ %7, %._crit_edge.loopexit ]
  %8 = tail call i64 @SDL_strlen_REAL(ptr noundef nonnull %0) #4
  %9 = tail call i64 @SDL_strlen_REAL(ptr noundef %2) #4
  %10 = mul i64 %9, %.056.lcssa
  %11 = tail call i64 @SDL_strlen_REAL(ptr noundef %1) #4
  %12 = tail call i64 @SDL_strlen_REAL(ptr noundef %3) #4
  %reass.sub = sub i64 %8, %.056.lcssa
  %13 = add i64 %reass.sub, 1
  %14 = add i64 %13, %10
  %15 = add i64 %14, %11
  %16 = add i64 %15, %12
  %17 = tail call noalias ptr @SDL_malloc_REAL(i64 noundef %16) #4
  %.not64 = icmp eq ptr %17, null
  br i1 %.not64, label %65, label %24

.lr.ph:                                           ; preds = %4, %.lr.ph
  %18 = phi i8 [ %23, %.lr.ph ], [ %6, %4 ]
  %.05474 = phi ptr [ %22, %.lr.ph ], [ %0, %4 ]
  %.05673 = phi i32 [ %21, %.lr.ph ], [ 0, %4 ]
  %19 = icmp eq i8 %18, 59
  %20 = zext i1 %19 to i32
  %21 = add nuw nsw i32 %.05673, %20
  %22 = getelementptr inbounds nuw i8, ptr %.05474, i64 1
  %23 = load i8, ptr %22, align 1
  %.not = icmp eq i8 %23, 0
  br i1 %.not, label %._crit_edge.loopexit, label %.lr.ph, !llvm.loop !5

24:                                               ; preds = %._crit_edge
  store i8 0, ptr %17, align 1
  %25 = tail call i64 @SDL_strlcat_REAL(ptr noundef nonnull %17, ptr noundef %1, i64 noundef %16) #4
  %26 = tail call i32 @SDL_strcmp_REAL(ptr noundef nonnull %0, ptr noundef nonnull @.str.2) #4
  %27 = icmp eq i32 %26, 0
  br i1 %27, label %30, label %.preheader

.preheader:                                       ; preds = %24
  %28 = load i8, ptr %0, align 1
  %.not6575 = icmp eq i8 %28, 0
  br i1 %.not6575, label %.critedge, label %.lr.ph78

.lr.ph78:                                         ; preds = %.preheader
  %29 = getelementptr inbounds nuw i8, ptr %5, i64 1
  br label %32

30:                                               ; preds = %24
  %31 = tail call i64 @SDL_strlcat_REAL(ptr noundef nonnull %17, ptr noundef nonnull @.str.2, i64 noundef %16) #4
  br label %.critedge

32:                                               ; preds = %.lr.ph78, %53
  %33 = phi i8 [ %28, %.lr.ph78 ], [ %55, %53 ]
  %.076 = phi ptr [ %0, %.lr.ph78 ], [ %54, %53 ]
  %34 = and i8 %33, -33
  %35 = add i8 %34, -65
  %or.cond68 = icmp ult i8 %35, 26
  %36 = add i8 %33, -48
  %or.cond67 = icmp ult i8 %36, 10
  %or.cond69 = or i1 %or.cond67, %or.cond68
  br i1 %or.cond69, label %38, label %37

37:                                               ; preds = %32
  switch i8 %33, label %50 [
    i8 45, label %38
    i8 95, label %38
    i8 46, label %38
    i8 59, label %40
  ]

38:                                               ; preds = %37, %37, %37, %32
  call void @llvm.lifetime.start.p0(i64 2, ptr nonnull %5) #4
  store i8 %33, ptr %5, align 1
  store i8 0, ptr %29, align 1
  %39 = call i64 @SDL_strlcat_REAL(ptr noundef nonnull %17, ptr noundef nonnull %5, i64 noundef %16) #4
  call void @llvm.lifetime.end.p0(i64 2, ptr nonnull %5) #4
  br label %53

40:                                               ; preds = %37
  %41 = icmp eq ptr %.076, %0
  br i1 %41, label %46, label %42

42:                                               ; preds = %40
  %43 = getelementptr inbounds i8, ptr %.076, i64 -1
  %44 = load i8, ptr %43, align 1
  %45 = icmp eq i8 %44, 59
  br i1 %45, label %46, label %48

46:                                               ; preds = %42, %40
  %47 = call zeroext i1 (ptr, ...) @SDL_SetError_REAL(ptr noundef nonnull @.str.3) #4
  call void @SDL_free_REAL(ptr noundef nonnull %17) #4
  br label %65

48:                                               ; preds = %42
  %49 = call i64 @SDL_strlcat_REAL(ptr noundef nonnull %17, ptr noundef %2, i64 noundef %16) #4
  br label %53

50:                                               ; preds = %37
  %51 = sext i8 %33 to i32
  %52 = call zeroext i1 (ptr, ...) @SDL_SetError_REAL(ptr noundef nonnull @.str.4, i32 noundef %51) #4
  call void @SDL_free_REAL(ptr noundef nonnull %17) #4
  br label %65

53:                                               ; preds = %38, %48
  %54 = getelementptr inbounds nuw i8, ptr %.076, i64 1
  %55 = load i8, ptr %54, align 1
  %.not65 = icmp eq i8 %55, 0
  br i1 %.not65, label %.critedge, label %32, !llvm.loop !6

.critedge:                                        ; preds = %53, %.preheader, %30
  %56 = call i64 @SDL_strlen_REAL(ptr noundef nonnull %0) #4
  %57 = getelementptr i8, ptr %0, i64 %56
  %58 = getelementptr i8, ptr %57, i64 -1
  %59 = load i8, ptr %58, align 1
  %60 = icmp eq i8 %59, 59
  br i1 %60, label %61, label %63

61:                                               ; preds = %.critedge
  %62 = call zeroext i1 (ptr, ...) @SDL_SetError_REAL(ptr noundef nonnull @.str.3) #4
  call void @SDL_free_REAL(ptr noundef nonnull %17) #4
  br label %65

63:                                               ; preds = %.critedge
  %64 = call i64 @SDL_strlcat_REAL(ptr noundef nonnull %17, ptr noundef %3, i64 noundef %16) #4
  br label %65

65:                                               ; preds = %46, %50, %._crit_edge, %63, %61
  %.055 = phi ptr [ null, %61 ], [ %17, %63 ], [ null, %._crit_edge ], [ null, %50 ], [ null, %46 ]
  ret ptr %.055
}